target datalayout = "e-m:e-p270:32:32-p271:32:32-p272:64:64-i64:64-i128:128-f80:128-n8:16:32:64-S128"
target triple = "x86_64-pc-linux-gnu"

%"struct.pkpy::FastLocals" = type { ptr, ptr }
%"struct.pkpy::CodeObject" = type { %"class.std::shared_ptr", %"struct.pkpy::Str", %"class.std::vector", %"class.std::vector.0", %"class.std::vector.5", %"class.pkpy::small_vector_2", %"class.pkpy::small_vector_2.10", %"struct.pkpy::NameDictImpl", %"class.std::vector.12", %"struct.pkpy::NameDictImpl", %"class.std::vector.17", i32, i32 }
%"class.std::shared_ptr" = type { %"class.std::__shared_ptr" }
%"class.std::__shared_ptr" = type { ptr, %"class.std::__shared_count" }
%"class.std::__shared_count" = type { ptr }
%"struct.pkpy::Str" = type { i32, i8, ptr, [16 x i8] }
%"class.std::vector" = type { %"struct.std::_Vector_base" }
%"struct.std::_Vector_base" = type { %"struct.std::_Vector_base<pkpy::Bytecode, std::allocator<pkpy::Bytecode>>::_Vector_impl" }
%"struct.std::_Vector_base<pkpy::Bytecode, std::allocator<pkpy::Bytecode>>::_Vector_impl" = type { %"struct.std::_Vector_base<pkpy::Bytecode, std::allocator<pkpy::Bytecode>>::_Vector_impl_data" }
%"struct.std::_Vector_base<pkpy::Bytecode, std::allocator<pkpy::Bytecode>>::_Vector_impl_data" = type { ptr, ptr, ptr }
%"class.std::vector.0" = type { %"struct.std::_Vector_base.1" }
%"struct.std::_Vector_base.1" = type { %"struct.std::_Vector_base<int, std::allocator<int>>::_Vector_impl" }
%"struct.std::_Vector_base<int, std::allocator<int>>::_Vector_impl" = type { %"struct.std::_Vector_base<int, std::allocator<int>>::_Vector_impl_data" }
%"struct.std::_Vector_base<int, std::allocator<int>>::_Vector_impl_data" = type { ptr, ptr, ptr }
%"class.std::vector.5" = type { %"struct.std::_Vector_base.6" }
%"struct.std::_Vector_base.6" = type { %"struct.std::_Vector_base<pkpy::CodeObject::LineInfo, std::allocator<pkpy::CodeObject::LineInfo>>::_Vector_impl" }
%"struct.std::_Vector_base<pkpy::CodeObject::LineInfo, std::allocator<pkpy::CodeObject::LineInfo>>::_Vector_impl" = type { %"struct.std::_Vector_base<pkpy::CodeObject::LineInfo, std::allocator<pkpy::CodeObject::LineInfo>>::_Vector_impl_data" }
%"struct.std::_Vector_base<pkpy::CodeObject::LineInfo, std::allocator<pkpy::CodeObject::LineInfo>>::_Vector_impl_data" = type { ptr, ptr, ptr }
%"class.pkpy::small_vector_2" = type { %"class.pkpy::small_vector" }
%"class.pkpy::small_vector" = type { [64 x i8], ptr, ptr, ptr }
%"class.pkpy::small_vector_2.10" = type { %"class.pkpy::small_vector.11" }
%"class.pkpy::small_vector.11" = type { [16 x i8], ptr, ptr, ptr }
%"class.std::vector.12" = type { %"struct.std::_Vector_base.13" }
%"struct.std::_Vector_base.13" = type { %"struct.std::_Vector_base<pkpy::CodeBlock, std::allocator<pkpy::CodeBlock>>::_Vector_impl" }
%"struct.std::_Vector_base<pkpy::CodeBlock, std::allocator<pkpy::CodeBlock>>::_Vector_impl" = type { %"struct.std::_Vector_base<pkpy::CodeBlock, std::allocator<pkpy::CodeBlock>>::_Vector_impl_data" }
%"struct.std::_Vector_base<pkpy::CodeBlock, std::allocator<pkpy::CodeBlock>>::_Vector_impl_data" = type { ptr, ptr, ptr }
%"struct.pkpy::NameDictImpl" = type { %union.anon }
%union.anon = type <{ %"struct.pkpy::LargeNameDict", [32 x i8] }>
%"struct.pkpy::LargeNameDict" = type { i8, float, i16, i16, i16, i16, ptr }
%"class.std::vector.17" = type { %"struct.std::_Vector_base.18" }
%"struct.std::_Vector_base.18" = type { %"struct.std::_Vector_base<std::shared_ptr<pkpy::FuncDecl>, std::allocator<std::shared_ptr<pkpy::FuncDecl>>>::_Vector_impl" }
%"struct.std::_Vector_base<std::shared_ptr<pkpy::FuncDecl>, std::allocator<std::shared_ptr<pkpy::FuncDecl>>>::_Vector_impl" = type { %"struct.std::_Vector_base<std::shared_ptr<pkpy::FuncDecl>, std::allocator<std::shared_ptr<pkpy::FuncDecl>>>::_Vector_impl_data" }
%"struct.std::_Vector_base<std::shared_ptr<pkpy::FuncDecl>, std::allocator<std::shared_ptr<pkpy::FuncDecl>>>::_Vector_impl_data" = type { ptr, ptr, ptr }
%"struct.pkpy::Frame" = type { i32, i32, ptr, ptr, ptr, ptr, %"struct.pkpy::FastLocals" }
%"class.std::__cxx11::basic_string" = type { %"struct.std::__cxx11::basic_string<char>::_Alloc_hider", i64, %union.anon.36 }
%"struct.std::__cxx11::basic_string<char>::_Alloc_hider" = type { ptr }
%union.anon.36 = type { i64, [8 x i8] }
%"struct.pkpy::CodeBlock" = type { i32, i32, i32, i32, i32, i32 }
%"struct.pkpy::ValueStack" = type { [33024 x ptr], ptr, ptr }

@.str = private unnamed_addr constant [16 x i8] c"invalid state: \00", align 1
@_ZTISt13runtime_error = external constant ptr

; Function Attrs: mustprogress nounwind uwtable
define linkonce_odr noundef i32 @_ZNK4pkpy12small_vectorINS_7StrNameELm8EE4sizeEv(ptr noundef nonnull align 8 dereferenceable(40) %0) #6 comdat align 2 {
  %2 = alloca ptr, align 8
  store ptr %0, ptr %2, align 8
  %3 = load ptr, ptr %2, align 8
  %4 = getelementptr inbounds %"class.pkpy::small_vector.11", ptr %3, i32 0, i32 2
  %5 = load ptr, ptr %4, align 8
  %6 = getelementptr inbounds %"class.pkpy::small_vector.11", ptr %3, i32 0, i32 1
  %7 = load ptr, ptr %6, align 8
  %8 = ptrtoint ptr %5 to i64
  %9 = ptrtoint ptr %7 to i64
  %10 = sub i64 %8, %9
  %11 = sdiv exact i64 %10, 2
  %12 = trunc i64 %11 to i32
  ret i32 %12
}

; Function Attrs: mustprogress nounwind uwtable
define linkonce_odr void @_ZN4pkpy10ValueStack4pushEPNS_8PyObjectE(ptr noundef nonnull align 8 dereferenceable(264208) %0, ptr noundef %1) #6 comdat align 2 {
  %3 = alloca ptr, align 8
  %4 = alloca ptr, align 8
  store ptr %0, ptr %3, align 8
  store ptr %1, ptr %4, align 8
  %5 = load ptr, ptr %3, align 8
  %6 = load ptr, ptr %4, align 8
  %7 = getelementptr inbounds %"struct.pkpy::ValueStack", ptr %5, i32 0, i32 1
  %8 = load ptr, ptr %7, align 8
  %9 = getelementptr inbounds ptr, ptr %8, i32 1
  store ptr %9, ptr %7, align 8
  store ptr %6, ptr %8, align 8
  ret void
}

; Function Attrs: mustprogress nounwind uwtable
define linkonce_odr void @_ZN4pkpy10ValueStack5resetEPPNS_8PyObjectE(ptr noundef nonnull align 8 dereferenceable(264208) %0, ptr noundef %1) #6 comdat align 2 {
  %3 = alloca ptr, align 8
  %4 = alloca ptr, align 8
  store ptr %0, ptr %3, align 8
  store ptr %1, ptr %4, align 8
  %5 = load ptr, ptr %3, align 8
  %6 = load ptr, ptr %4, align 8
  %7 = getelementptr inbounds %"struct.pkpy::ValueStack", ptr %5, i32 0, i32 1
  store ptr %6, ptr %7, align 8
  ret void
}

; Function Attrs: mustprogress uwtable
define linkonce_odr noundef i32 @_ZNK4pkpy10FastLocals4sizeEv(ptr noundef nonnull align 8 dereferenceable(16) %0) #4 comdat align 2 {
  %2 = alloca ptr, align 8
  store ptr %0, ptr %2, align 8
  %3 = load ptr, ptr %2, align 8
  %4 = getelementptr inbounds %"struct.pkpy::FastLocals", ptr %3, i32 0, i32 0
  %5 = load ptr, ptr %4, align 8
  %6 = getelementptr inbounds %"struct.pkpy::CodeObject", ptr %5, i32 0, i32 6
  %7 = call noundef i32 @_ZNK4pkpy12small_vectorINS_7StrNameELm8EE4sizeEv(ptr noundef nonnull align 8 dereferenceable(40) %6)
  ret i32 %7
}

; Function Attrs: mustprogress nounwind uwtable
define linkonce_odr noundef ptr @_ZNK4pkpy5Frame14actual_sp_baseEv(ptr noundef nonnull align 8 dereferenceable(56) %0) #6 comdat align 2 {
  %2 = alloca ptr, align 8
  store ptr %0, ptr %2, align 8
  %3 = load ptr, ptr %2, align 8
  %4 = getelementptr inbounds %"struct.pkpy::Frame", ptr %3, i32 0, i32 6
  %5 = getelementptr inbounds %"struct.pkpy::FastLocals", ptr %4, i32 0, i32 1
  %6 = load ptr, ptr %5, align 8
  ret ptr %6
}

; Function Attrs: mustprogress uwtable
define linkonce_odr noundef i32 @_ZNK4pkpy5Frame10stack_sizeEPNS_10ValueStackE(ptr noundef nonnull align 8 dereferenceable(56) %0, ptr noundef %1) #4 comdat align 2 {
  %3 = alloca ptr, align 8
  %4 = alloca ptr, align 8
  store ptr %0, ptr %3, align 8
  store ptr %1, ptr %4, align 8
  %5 = load ptr, ptr %3, align 8
  %6 = load ptr, ptr %4, align 8
  %7 = getelementptr inbounds %"struct.pkpy::ValueStack", ptr %6, i32 0, i32 1
  %8 = load ptr, ptr %7, align 8
  %9 = call noundef ptr @_ZNK4pkpy5Frame14actual_sp_baseEv(ptr noundef nonnull align 8 dereferenceable(56) %5)
  %10 = ptrtoint ptr %8 to i64
  %11 = ptrtoint ptr %9 to i64
  %12 = sub i64 %10, %11
  %13 = sdiv exact i64 %12, 8
  %14 = trunc i64 %13 to i32
  ret i32 %14
}

; Function Attrs: mustprogress nounwind uwtable
define linkonce_odr noundef ptr @_ZN4pkpy10ValueStack4popxEv(ptr noundef nonnull align 8 dereferenceable(264208) %0) #6 comdat align 2 {
  %2 = alloca ptr, align 8
  store ptr %0, ptr %2, align 8
  %3 = load ptr, ptr %2, align 8
  %4 = getelementptr inbounds %"struct.pkpy::ValueStack", ptr %3, i32 0, i32 1
  %5 = load ptr, ptr %4, align 8
  %6 = getelementptr inbounds ptr, ptr %5, i32 -1
  store ptr %6, ptr %4, align 8
  %7 = load ptr, ptr %6, align 8
  ret ptr %7
}

; Function Attrs: mustprogress nounwind uwtable
define linkonce_odr noundef nonnull align 4 dereferenceable(24) ptr @_ZNKSt6vectorIN4pkpy9CodeBlockESaIS1_EEixEm(ptr noundef nonnull align 8 dereferenceable(24) %0, i64 noundef %1) #6 comdat align 2 {
  %3 = alloca ptr, align 8
  %4 = alloca i64, align 8
  store ptr %0, ptr %3, align 8
  store i64 %1, ptr %4, align 8
  %5 = load ptr, ptr %3, align 8
  %6 = getelementptr inbounds %"struct.std::_Vector_base.13", ptr %5, i32 0, i32 0
  %7 = getelementptr inbounds %"struct.std::_Vector_base<pkpy::CodeBlock, std::allocator<pkpy::CodeBlock>>::_Vector_impl_data", ptr %6, i32 0, i32 0
  %8 = load ptr, ptr %7, align 8
  %9 = load i64, ptr %4, align 8
  %10 = getelementptr inbounds %"struct.pkpy::CodeBlock", ptr %8, i64 %9
  ret ptr %10
}

; Function Attrs: mustprogress nounwind uwtable
define linkonce_odr noundef nonnull align 4 dereferenceable(4) ptr @_ZNKSt6vectorIiSaIiEEixEm(ptr noundef nonnull align 8 dereferenceable(24) %0, i64 noundef %1) #6 comdat align 2 {
  %3 = alloca ptr, align 8
  %4 = alloca i64, align 8
  store ptr %0, ptr %3, align 8
  store i64 %1, ptr %4, align 8
  %5 = load ptr, ptr %3, align 8
  %6 = getelementptr inbounds %"struct.std::_Vector_base.1", ptr %5, i32 0, i32 0
  %7 = getelementptr inbounds %"struct.std::_Vector_base<int, std::allocator<int>>::_Vector_impl_data", ptr %6, i32 0, i32 0
  %8 = load ptr, ptr %7, align 8
  %9 = load i64, ptr %4, align 8
  %10 = getelementptr inbounds i32, ptr %8, i64 %9
  ret ptr %10
}

; Function Attrs: mustprogress uwtable
define noundef zeroext i1 @_ZN4pkpy5Frame25jump_to_exception_handlerEPNS_10ValueStackE(ptr noundef nonnull align 8 dereferenceable(56) %0, ptr noundef %1) #4 align 2 personality ptr @__gxx_personality_v0 {
  %3 = alloca i1, align 1
  %4 = alloca ptr, align 8
  %5 = alloca ptr, align 8
  %6 = alloca i32, align 4
  %7 = alloca ptr, align 8
  %8 = alloca i32, align 4
  %9 = alloca %"class.std::__cxx11::basic_string", align 8
  %10 = alloca %"struct.pkpy::Str", align 8
  %11 = alloca i32, align 4
  %12 = alloca ptr, align 8
  %13 = alloca i32, align 4
  %14 = alloca i8, align 1
  %15 = alloca i1, align 1
  store ptr %0, ptr %4, align 8
  store ptr %1, ptr %5, align 8
  %16 = load ptr, ptr %4, align 8
  %17 = getelementptr inbounds %"struct.pkpy::Frame", ptr %16, i32 0, i32 3
  %18 = load ptr, ptr %17, align 8
  %19 = getelementptr inbounds %"struct.pkpy::CodeObject", ptr %18, i32 0, i32 3
  %20 = getelementptr inbounds %"struct.pkpy::Frame", ptr %16, i32 0, i32 0
  %21 = load i32, ptr %20, align 8
  %22 = sext i32 %21 to i64
  %23 = call noundef nonnull align 4 dereferenceable(4) ptr @_ZNKSt6vectorIiSaIiEEixEm(ptr noundef nonnull align 8 dereferenceable(24) %19, i64 noundef %22) #3
  %24 = load i32, ptr %23, align 4
  store i32 %24, ptr %6, align 4
  br label %25

25:                                               ; preds = %39, %2
  %26 = load i32, ptr %6, align 4
  %27 = icmp sge i32 %26, 0
  br i1 %27, label %28, label %48

28:                                               ; preds = %25
  %29 = getelementptr inbounds %"struct.pkpy::Frame", ptr %16, i32 0, i32 3
  %30 = load ptr, ptr %29, align 8
  %31 = getelementptr inbounds %"struct.pkpy::CodeObject", ptr %30, i32 0, i32 8
  %32 = load i32, ptr %6, align 4
  %33 = sext i32 %32 to i64
  %34 = call noundef nonnull align 4 dereferenceable(24) ptr @_ZNKSt6vectorIN4pkpy9CodeBlockESaIS1_EEixEm(ptr noundef nonnull align 8 dereferenceable(24) %31, i64 noundef %33) #3
  %35 = getelementptr inbounds %"struct.pkpy::CodeBlock", ptr %34, i32 0, i32 0
  %36 = load i32, ptr %35, align 4
  %37 = icmp eq i32 %36, 4
  br i1 %37, label %38, label %39

38:                                               ; preds = %28
  br label %48

39:                                               ; preds = %28
  %40 = getelementptr inbounds %"struct.pkpy::Frame", ptr %16, i32 0, i32 3
  %41 = load ptr, ptr %40, align 8
  %42 = getelementptr inbounds %"struct.pkpy::CodeObject", ptr %41, i32 0, i32 8
  %43 = load i32, ptr %6, align 4
  %44 = sext i32 %43 to i64
  %45 = call noundef nonnull align 4 dereferenceable(24) ptr @_ZNKSt6vectorIN4pkpy9CodeBlockESaIS1_EEixEm(ptr noundef nonnull align 8 dereferenceable(24) %42, i64 noundef %44) #3
  %46 = getelementptr inbounds %"struct.pkpy::CodeBlock", ptr %45, i32 0, i32 1
  %47 = load i32, ptr %46, align 4
  store i32 %47, ptr %6, align 4
  br label %25, !llvm.loop !4

48:                                               ; preds = %38, %25
  %49 = load i32, ptr %6, align 4
  %50 = icmp slt i32 %49, 0
  br i1 %50, label %51, label %52

51:                                               ; preds = %48
  store i1 false, ptr %3, align 1
  br label %113

52:                                               ; preds = %48
  %53 = load ptr, ptr %5, align 8
  %54 = call noundef ptr @_ZN4pkpy10ValueStack4popxEv(ptr noundef nonnull align 8 dereferenceable(264208) %53)
  store ptr %54, ptr %7, align 8
  %55 = getelementptr inbounds %"struct.pkpy::Frame", ptr %16, i32 0, i32 3
  %56 = load ptr, ptr %55, align 8
  %57 = getelementptr inbounds %"struct.pkpy::CodeObject", ptr %56, i32 0, i32 8
  %58 = load i32, ptr %6, align 4
  %59 = sext i32 %58 to i64
  %60 = call noundef nonnull align 4 dereferenceable(24) ptr @_ZNKSt6vectorIN4pkpy9CodeBlockESaIS1_EEixEm(ptr noundef nonnull align 8 dereferenceable(24) %57, i64 noundef %59) #3
  %61 = getelementptr inbounds %"struct.pkpy::CodeBlock", ptr %60, i32 0, i32 2
  %62 = load i32, ptr %61, align 4
  store i32 %62, ptr %8, align 4
  %63 = load ptr, ptr %5, align 8
  %64 = call noundef i32 @_ZNK4pkpy5Frame10stack_sizeEPNS_10ValueStackE(ptr noundef nonnull align 8 dereferenceable(56) %16, ptr noundef %63)
  %65 = load i32, ptr %8, align 4
  %66 = icmp slt i32 %64, %65
  br i1 %66, label %67, label %92

67:                                               ; preds = %52
  store i1 true, ptr %15, align 1
  %68 = call ptr @__cxa_allocate_exception(i64 16) #3
  %69 = load ptr, ptr %5, align 8
  %70 = invoke noundef i32 @_ZNK4pkpy5Frame10stack_sizeEPNS_10ValueStackE(ptr noundef nonnull align 8 dereferenceable(56) %16, ptr noundef %69)
          to label %71 unwind label %75

71:                                               ; preds = %67
  store i32 %70, ptr %11, align 4
  store i8 60, ptr %14, align 1
  invoke void @_ZN4pkpy2_SIJRA16_KcicRiEEENS_3StrEDpOT_(ptr dead_on_unwind writable sret(%"struct.pkpy::Str") align 8 %10, ptr noundef nonnull align 1 dereferenceable(16) @.str, ptr noundef nonnull align 4 dereferenceable(4) %11, ptr noundef nonnull align 1 dereferenceable(1) %14, ptr noundef nonnull align 4 dereferenceable(4) %8)
          to label %72 unwind label %75

72:                                               ; preds = %71
  invoke void @_ZNK4pkpy3Str3strB5cxx11Ev(ptr dead_on_unwind writable sret(%"class.std::__cxx11::basic_string") align 8 %9, ptr noundef nonnull align 8 dereferenceable(32) %10)
          to label %73 unwind label %79

73:                                               ; preds = %72
  invoke void @_ZNSt13runtime_errorC1ERKNSt7__cxx1112basic_stringIcSt11char_traitsIcESaIcEEE(ptr noundef nonnull align 8 dereferenceable(16) %68, ptr noundef nonnull align 8 dereferenceable(32) %9)
          to label %74 unwind label %83

74:                                               ; preds = %73
  store i1 false, ptr %15, align 1
  invoke void @__cxa_throw(ptr %68, ptr @_ZTISt13runtime_error, ptr @_ZNSt13runtime_errorD1Ev) #14
          to label %120 unwind label %83

75:                                               ; preds = %71, %67
  %76 = landingpad { ptr, i32 }
          cleanup
  %77 = extractvalue { ptr, i32 } %76, 0
  store ptr %77, ptr %12, align 8
  %78 = extractvalue { ptr, i32 } %76, 1
  store i32 %78, ptr %13, align 4
  br label %88

79:                                               ; preds = %72
  %80 = landingpad { ptr, i32 }
          cleanup
  %81 = extractvalue { ptr, i32 } %80, 0
  store ptr %81, ptr %12, align 8
  %82 = extractvalue { ptr, i32 } %80, 1
  store i32 %82, ptr %13, align 4
  br label %87

83:                                               ; preds = %74, %73
  %84 = landingpad { ptr, i32 }
          cleanup
  %85 = extractvalue { ptr, i32 } %84, 0
  store ptr %85, ptr %12, align 8
  %86 = extractvalue { ptr, i32 } %84, 1
  store i32 %86, ptr %13, align 4
  call void @_ZNSt7__cxx1112basic_stringIcSt11char_traitsIcESaIcEED1Ev(ptr noundef nonnull align 8 dereferenceable(32) %9) #3
  br label %87

87:                                               ; preds = %83, %79
  call void @_ZN4pkpy3StrD1Ev(ptr noundef nonnull align 8 dereferenceable(32) %10) #3
  br label %88

88:                                               ; preds = %87, %75
  %89 = load i1, ptr %15, align 1
  br i1 %89, label %90, label %91

90:                                               ; preds = %88
  call void @__cxa_free_exception(ptr %68) #3
  br label %91

91:                                               ; preds = %90, %88
  br label %115

92:                                               ; preds = %52
  %93 = load ptr, ptr %5, align 8
  %94 = call noundef ptr @_ZNK4pkpy5Frame14actual_sp_baseEv(ptr noundef nonnull align 8 dereferenceable(56) %16)
  %95 = getelementptr inbounds %"struct.pkpy::Frame", ptr %16, i32 0, i32 6
  %96 = call noundef i32 @_ZNK4pkpy10FastLocals4sizeEv(ptr noundef nonnull align 8 dereferenceable(16) %95)
  %97 = sext i32 %96 to i64
  %98 = getelementptr inbounds ptr, ptr %94, i64 %97
  %99 = load i32, ptr %8, align 4
  %100 = sext i32 %99 to i64
  %101 = getelementptr inbounds ptr, ptr %98, i64 %100
  call void @_ZN4pkpy10ValueStack5resetEPPNS_8PyObjectE(ptr noundef nonnull align 8 dereferenceable(264208) %93, ptr noundef %101)
  %102 = load ptr, ptr %5, align 8
  %103 = load ptr, ptr %7, align 8
  call void @_ZN4pkpy10ValueStack4pushEPNS_8PyObjectE(ptr noundef nonnull align 8 dereferenceable(264208) %102, ptr noundef %103)
  %104 = getelementptr inbounds %"struct.pkpy::Frame", ptr %16, i32 0, i32 3
  %105 = load ptr, ptr %104, align 8
  %106 = getelementptr inbounds %"struct.pkpy::CodeObject", ptr %105, i32 0, i32 8
  %107 = load i32, ptr %6, align 4
  %108 = sext i32 %107 to i64
  %109 = call noundef nonnull align 4 dereferenceable(24) ptr @_ZNKSt6vectorIN4pkpy9CodeBlockESaIS1_EEixEm(ptr noundef nonnull align 8 dereferenceable(24) %106, i64 noundef %108) #3
  %110 = getelementptr inbounds %"struct.pkpy::CodeBlock", ptr %109, i32 0, i32 4
  %111 = load i32, ptr %110, align 4
  %112 = getelementptr inbounds %"struct.pkpy::Frame", ptr %16, i32 0, i32 1
  store i32 %111, ptr %112, align 4
  store i1 true, ptr %3, align 1
  br label %113

113:                                              ; preds = %92, %51
  %114 = load i1, ptr %3, align 1
  ret i1 %114

115:                                              ; preds = %91
  %116 = load ptr, ptr %12, align 8
  %117 = load i32, ptr %13, align 4
  %118 = insertvalue { ptr, i32 } poison, ptr %116, 0
  %119 = insertvalue { ptr, i32 } %118, i32 %117, 1
  resume { ptr, i32 } %119

120:                                              ; preds = %74
  unreachable
}