; Function Attrs: mustprogress uwtable
define noundef zeroext i1 @_ZN4pkpy5Frame25jump_to_exception_handlerEPNS_10ValueStackE(ptr noundef nonnull align 8 captures(none) dereferenceable(56) %0, ptr noundef captures(none) %1) local_unnamed_addr #5 align 2 personality ptr @__gxx_personality_v0 {
  %3 = alloca i32, align 4
  %4 = alloca %"class.std::__cxx11::basic_string", align 8
  %5 = alloca %"struct.pkpy::Str", align 8
  %6 = alloca i32, align 4
  %7 = alloca i8, align 1
  %8 = getelementptr inbounds nuw i8, ptr %0, i64 16
  %9 = load ptr, ptr %8, align 8
  %10 = getelementptr inbounds nuw i8, ptr %9, i64 72
  %11 = load i32, ptr %0, align 8
  %12 = sext i32 %11 to i64
  %13 = load ptr, ptr %10, align 8
  %14 = getelementptr inbounds i32, ptr %13, i64 %12
  %.02134 = load i32, ptr %14, align 4
  %15 = icmp sgt i32 %.02134, -1
  br i1 %15, label %.lr.ph, label %.loopexit

.lr.ph:                                           ; preds = %2
  %16 = getelementptr inbounds nuw i8, ptr %9, i64 304
  %17 = load ptr, ptr %16, align 8
  br label %21

18:                                               ; preds = %21
  %19 = getelementptr inbounds nuw i8, ptr %23, i64 4
  %.021 = load i32, ptr %19, align 4
  %20 = icmp sgt i32 %.021, -1
  br i1 %20, label %21, label %.loopexit, !llvm.loop !14

21:                                               ; preds = %.lr.ph, %18
  %.02135 = phi i32 [ %.02134, %.lr.ph ], [ %.021, %18 ]
  %22 = zext nneg i32 %.02135 to i64
  %23 = getelementptr inbounds nuw %"struct.pkpy::CodeBlock", ptr %17, i64 %22
  %24 = load i32, ptr %23, align 4
  %25 = icmp eq i32 %24, 4
  br i1 %25, label %26, label %18

26:                                               ; preds = %21
  %27 = getelementptr inbounds nuw i8, ptr %1, i64 264192
  %28 = load ptr, ptr %27, align 8
  %29 = getelementptr inbounds i8, ptr %28, i64 -8
  store ptr %29, ptr %27, align 8
  %30 = load ptr, ptr %29, align 8
  %31 = load ptr, ptr %8, align 8
  %32 = getelementptr inbounds nuw i8, ptr %31, i64 304
  %33 = load ptr, ptr %32, align 8
  %34 = getelementptr inbounds nuw %"struct.pkpy::CodeBlock", ptr %33, i64 %22, i32 2
  %35 = load i32, ptr %34, align 4
  store i32 %35, ptr %3, align 4
  %36 = getelementptr inbounds nuw i8, ptr %0, i64 48
  %37 = load ptr, ptr %36, align 8
  %38 = ptrtoint ptr %29 to i64
  %39 = ptrtoint ptr %37 to i64
  %40 = sub i64 %38, %39
  %41 = lshr exact i64 %40, 3
  %42 = trunc i64 %41 to i32
  %43 = icmp sgt i32 %35, %42
  br i1 %43, label %44, label %61

44:                                               ; preds = %26
  %45 = tail call ptr @__cxa_allocate_exception(i64 16) #23
  %46 = load ptr, ptr %27, align 8
  %47 = load ptr, ptr %36, align 8
  %48 = ptrtoint ptr %46 to i64
  %49 = ptrtoint ptr %47 to i64
  %50 = sub i64 %48, %49
  %51 = lshr exact i64 %50, 3
  %52 = trunc i64 %51 to i32
  store i32 %52, ptr %6, align 4
  store i8 60, ptr %7, align 1
  invoke void @_ZN4pkpy2_SIJRA16_KcicRiEEENS_3StrEDpOT_(ptr dead_on_unwind nonnull writable sret(%"struct.pkpy::Str") align 8 %5, ptr noundef nonnull align 1 dereferenceable(16) @.str, ptr noundef nonnull align 4 dereferenceable(4) %6, ptr noundef nonnull align 1 dereferenceable(1) %7, ptr noundef nonnull align 4 dereferenceable(4) %3)
          to label %53 unwind label %.thread24

53:                                               ; preds = %44
  invoke void @_ZNK4pkpy3Str3strB5cxx11Ev(ptr dead_on_unwind nonnull writable sret(%"class.std::__cxx11::basic_string") align 8 %4, ptr noundef nonnull align 8 dereferenceable(32) %5)
          to label %54 unwind label %.thread29

54:                                               ; preds = %53
  invoke void @_ZNSt13runtime_errorC1ERKNSt7__cxx1112basic_stringIcSt11char_traitsIcESaIcEEE(ptr noundef nonnull align 8 dereferenceable(16) %45, ptr noundef nonnull align 8 dereferenceable(32) %4)
          to label %55 unwind label %58

55:                                               ; preds = %54
  invoke void @__cxa_throw(ptr nonnull %45, ptr nonnull @_ZTISt13runtime_error, ptr nonnull @_ZNSt13runtime_errorD1Ev) #24
          to label %84 unwind label %58

.thread24:                                        ; preds = %44
  %56 = landingpad { ptr, i32 }
          cleanup
  br label %60

.thread29:                                        ; preds = %53
  %57 = landingpad { ptr, i32 }
          cleanup
  call void @_ZN4pkpy3StrD1Ev(ptr noundef nonnull align 8 dereferenceable(32) %5) #23
  br label %60

58:                                               ; preds = %54, %55
  %.0 = phi i1 [ false, %55 ], [ true, %54 ]
  %59 = landingpad { ptr, i32 }
          cleanup
  call void @_ZNSt7__cxx1112basic_stringIcSt11char_traitsIcESaIcEED1Ev(ptr noundef nonnull align 8 dereferenceable(32) %4) #23
  call void @_ZN4pkpy3StrD1Ev(ptr noundef nonnull align 8 dereferenceable(32) %5) #23
  br i1 %.0, label %60, label %83

60:                                               ; preds = %.thread29, %.thread24, %58
  %.pn.pn28 = phi { ptr, i32 } [ %56, %.thread24 ], [ %59, %58 ], [ %57, %.thread29 ]
  call void @__cxa_free_exception(ptr %45) #23
  br label %83

61:                                               ; preds = %26
  %62 = getelementptr inbounds nuw i8, ptr %0, i64 40
  %63 = load ptr, ptr %62, align 8
  %64 = getelementptr inbounds nuw i8, ptr %63, i64 232
  %65 = load ptr, ptr %64, align 8
  %66 = getelementptr inbounds nuw i8, ptr %63, i64 224
  %67 = load ptr, ptr %66, align 8
  %68 = ptrtoint ptr %65 to i64
  %69 = ptrtoint ptr %67 to i64
  %70 = sub i64 %68, %69
  %sext = shl i64 %70, 31
  %71 = ashr i64 %sext, 32
  %72 = getelementptr inbounds ptr, ptr %37, i64 %71
  %73 = sext i32 %35 to i64
  %74 = getelementptr inbounds ptr, ptr %72, i64 %73
  %75 = getelementptr inbounds nuw i8, ptr %74, i64 8
  store ptr %75, ptr %27, align 8
  store ptr %30, ptr %74, align 8
  %76 = load ptr, ptr %8, align 8
  %77 = getelementptr inbounds nuw i8, ptr %76, i64 304
  %78 = load ptr, ptr %77, align 8
  %79 = getelementptr inbounds nuw %"struct.pkpy::CodeBlock", ptr %78, i64 %22, i32 4
  %80 = load i32, ptr %79, align 4
  %81 = getelementptr inbounds nuw i8, ptr %0, i64 4
  store i32 %80, ptr %81, align 4
  br label %.loopexit

.loopexit:                                        ; preds = %18, %2, %61
  %82 = phi i1 [ true, %61 ], [ false, %2 ], [ false, %18 ]
  ret i1 %82

83:                                               ; preds = %58, %60
  %.pn.pn27 = phi { ptr, i32 } [ %59, %58 ], [ %.pn.pn28, %60 ]
  resume { ptr, i32 } %.pn.pn27

84:                                               ; preds = %55
  unreachable
}